target datalayout = "e-m:e-p270:32:32-p271:32:32-p272:64:64-i64:64-i128:128-f80:128-n8:16:32:64-S128"
target triple = "x86_64-pc-linux-gnu"

%struct.yaml_version_directive_s = type { i32, i32 }
%struct.yaml_emitter_s = type { i32, ptr, ptr, ptr, %union.anon, %struct.anon.0, %struct.anon.1, i32, i32, i32, i32, i32, i32, %struct.anon.2, i32, %struct.anon.3, %struct.anon.4, %struct.anon.5, i32, i32, i32, i32, i32, i32, i32, i32, i32, i32, i32, %struct.anon.6, %struct.anon.7, %struct.anon.8, i32, i32, ptr, i32, ptr }
%union.anon = type { %struct.anon }
%struct.anon = type { ptr, i64, ptr }
%struct.anon.0 = type { ptr, ptr, ptr, ptr }
%struct.anon.1 = type { ptr, ptr, ptr, ptr }
%struct.anon.2 = type { ptr, ptr, ptr }
%struct.anon.3 = type { ptr, ptr, ptr, ptr }
%struct.anon.4 = type { ptr, ptr, ptr }
%struct.anon.5 = type { ptr, ptr, ptr }
%struct.anon.6 = type { ptr, i64, i32 }
%struct.anon.7 = type { ptr, i64, ptr, i64 }
%struct.anon.8 = type { ptr, i64, i32, i32, i32, i32, i32, i32 }
%struct.buf_t = type { i32, ptr, i32, i32, i8, i8 }
%struct.yaml_event_s = type { i32, %union.anon.20, %struct.yaml_mark_s, %struct.yaml_mark_s }
%union.anon.20 = type { %struct.anon.26 }
%struct.anon.26 = type { ptr, ptr, ptr, i64, i32, i32, i32 }
%struct.yaml_mark_s = type { i64, i64, i64 }

@.str.5 = private unnamed_addr constant [21 x i8] c"%s: dump yaml failed\00", align 1
@__func__.serialize_p_data_to_string = private unnamed_addr constant [27 x i8] c"serialize_p_data_to_string\00", align 1
@__const._dump_yaml.ver = private unnamed_addr constant %struct.yaml_version_directive_s { i32 1, i32 1 }, align 4
@.str.6 = private unnamed_addr constant [33 x i8] c"%s:%d %s: YAML emitter error: %s\00", align 1
@.str.7 = private unnamed_addr constant [18 x i8] c"serializer_yaml.c\00", align 1
@__func__._dump_yaml = private unnamed_addr constant [11 x i8] c"_dump_yaml\00", align 1

; Function Attrs: nounwind uwtable
define internal i32 @_dump_yaml(ptr noundef %0, ptr noundef %1, ptr noundef %2, i32 noundef %3) #0 {
  %5 = alloca i32, align 4
  %6 = alloca ptr, align 8
  %7 = alloca ptr, align 8
  %8 = alloca ptr, align 8
  %9 = alloca i32, align 4
  %10 = alloca %struct.yaml_event_s, align 8
  %11 = alloca %struct.yaml_version_directive_s, align 4
  %12 = alloca i32, align 4
  store ptr %0, ptr %6, align 8
  store ptr %1, ptr %7, align 8
  store ptr %2, ptr %8, align 8
  store i32 %3, ptr %9, align 4
  call void @llvm.lifetime.start.p0(i64 104, ptr %10) #6
  call void @llvm.lifetime.start.p0(i64 8, ptr %11) #6
  call void @llvm.memcpy.p0.p0.i64(ptr align 4 %11, ptr align 4 @__const._dump_yaml.ver, i64 8, i1 false)
  %13 = load ptr, ptr %7, align 8
  %14 = call i32 @yaml_emitter_initialize(ptr noundef %13)
  %15 = icmp ne i32 %14, 0
  br i1 %15, label %24, label %16

16:                                               ; preds = %4
  br label %17

17:                                               ; preds = %16
  %18 = load ptr, ptr %7, align 8
  %19 = getelementptr inbounds nuw %struct.yaml_emitter_s, ptr %18, i32 0, i32 1
  %20 = load ptr, ptr %19, align 8
  %21 = call i32 (ptr, ...) @slurm_error(ptr noundef @.str.6, ptr noundef @.str.7, i32 noundef 660, ptr noundef @__func__._dump_yaml, ptr noundef %20)
  br label %132

22:                                               ; No predecessors!
  br label %23

23:                                               ; preds = %22
  br label %24

24:                                               ; preds = %23, %4
  %25 = load i32, ptr %9, align 4
  %26 = icmp eq i32 %25, 1
  br i1 %26, label %27, label %31

27:                                               ; preds = %24
  %28 = load ptr, ptr %7, align 8
  call void @yaml_emitter_set_indent(ptr noundef %28, i32 noundef 0)
  %29 = load ptr, ptr %7, align 8
  call void @yaml_emitter_set_width(ptr noundef %29, i32 noundef -1)
  %30 = load ptr, ptr %7, align 8
  call void @yaml_emitter_set_break(ptr noundef %30, i32 noundef 0)
  br label %31

31:                                               ; preds = %27, %24
  %32 = load ptr, ptr %7, align 8
  %33 = load ptr, ptr %8, align 8
  call void @yaml_emitter_set_output(ptr noundef %32, ptr noundef @_yaml_write_handler, ptr noundef %33)
  %34 = call i32 @yaml_stream_start_event_initialize(ptr noundef %10, i32 noundef 1)
  %35 = icmp ne i32 %34, 0
  br i1 %35, label %44, label %36

36:                                               ; preds = %31
  br label %37

37:                                               ; preds = %36
  %38 = load ptr, ptr %7, align 8
  %39 = getelementptr inbounds nuw %struct.yaml_emitter_s, ptr %38, i32 0, i32 1
  %40 = load ptr, ptr %39, align 8
  %41 = call i32 (ptr, ...) @slurm_error(ptr noundef @.str.6, ptr noundef @.str.7, i32 noundef 671, ptr noundef @__func__._dump_yaml, ptr noundef %40)
  br label %132

42:                                               ; No predecessors!
  br label %43

43:                                               ; preds = %42
  br label %44

44:                                               ; preds = %43, %31
  %45 = load ptr, ptr %7, align 8
  %46 = call i32 @yaml_emitter_emit(ptr noundef %45, ptr noundef %10)
  %47 = icmp ne i32 %46, 0
  br i1 %47, label %56, label %48

48:                                               ; preds = %44
  br label %49

49:                                               ; preds = %48
  %50 = load ptr, ptr %7, align 8
  %51 = getelementptr inbounds nuw %struct.yaml_emitter_s, ptr %50, i32 0, i32 1
  %52 = load ptr, ptr %51, align 8
  %53 = call i32 (ptr, ...) @slurm_error(ptr noundef @.str.6, ptr noundef @.str.7, i32 noundef 674, ptr noundef @__func__._dump_yaml, ptr noundef %52)
  br label %132

54:                                               ; No predecessors!
  br label %55

55:                                               ; preds = %54
  br label %56

56:                                               ; preds = %55, %44
  %57 = call i32 @yaml_document_start_event_initialize(ptr noundef %10, ptr noundef %11, ptr noundef null, ptr noundef null, i32 noundef 0)
  %58 = icmp ne i32 %57, 0
  br i1 %58, label %67, label %59

59:                                               ; preds = %56
  br label %60

60:                                               ; preds = %59
  %61 = load ptr, ptr %7, align 8
  %62 = getelementptr inbounds nuw %struct.yaml_emitter_s, ptr %61, i32 0, i32 1
  %63 = load ptr, ptr %62, align 8
  %64 = call i32 (ptr, ...) @slurm_error(ptr noundef @.str.6, ptr noundef @.str.7, i32 noundef 677, ptr noundef @__func__._dump_yaml, ptr noundef %63)
  br label %132

65:                                               ; No predecessors!
  br label %66

66:                                               ; preds = %65
  br label %67

67:                                               ; preds = %66, %56
  %68 = load ptr, ptr %7, align 8
  %69 = call i32 @yaml_emitter_emit(ptr noundef %68, ptr noundef %10)
  %70 = icmp ne i32 %69, 0
  br i1 %70, label %79, label %71

71:                                               ; preds = %67
  br label %72

72:                                               ; preds = %71
  %73 = load ptr, ptr %7, align 8
  %74 = getelementptr inbounds nuw %struct.yaml_emitter_s, ptr %73, i32 0, i32 1
  %75 = load ptr, ptr %74, align 8
  %76 = call i32 (ptr, ...) @slurm_error(ptr noundef @.str.6, ptr noundef @.str.7, i32 noundef 680, ptr noundef @__func__._dump_yaml, ptr noundef %75)
  br label %132

77:                                               ; No predecessors!
  br label %78

78:                                               ; preds = %77
  br label %79

79:                                               ; preds = %78, %67
  %80 = load ptr, ptr %6, align 8
  %81 = load ptr, ptr %7, align 8
  %82 = call i32 @_data_to_yaml(ptr noundef %80, ptr noundef %81)
  %83 = icmp ne i32 %82, 0
  br i1 %83, label %84, label %85

84:                                               ; preds = %79
  br label %132

85:                                               ; preds = %79
  %86 = call i32 @yaml_document_end_event_initialize(ptr noundef %10, i32 noundef 0)
  %87 = icmp ne i32 %86, 0
  br i1 %87, label %96, label %88

88:                                               ; preds = %85
  br label %89

89:                                               ; preds = %88
  %90 = load ptr, ptr %7, align 8
  %91 = getelementptr inbounds nuw %struct.yaml_emitter_s, ptr %90, i32 0, i32 1
  %92 = load ptr, ptr %91, align 8
  %93 = call i32 (ptr, ...) @slurm_error(ptr noundef @.str.6, ptr noundef @.str.7, i32 noundef 686, ptr noundef @__func__._dump_yaml, ptr noundef %92)
  br label %132

94:                                               ; No predecessors!
  br label %95

95:                                               ; preds = %94
  br label %96

96:                                               ; preds = %95, %85
  %97 = load ptr, ptr %7, align 8
  %98 = call i32 @yaml_emitter_emit(ptr noundef %97, ptr noundef %10)
  %99 = icmp ne i32 %98, 0
  br i1 %99, label %108, label %100

100:                                              ; preds = %96
  br label %101

101:                                              ; preds = %100
  %102 = load ptr, ptr %7, align 8
  %103 = getelementptr inbounds nuw %struct.yaml_emitter_s, ptr %102, i32 0, i32 1
  %104 = load ptr, ptr %103, align 8
  %105 = call i32 (ptr, ...) @slurm_error(ptr noundef @.str.6, ptr noundef @.str.7, i32 noundef 689, ptr noundef @__func__._dump_yaml, ptr noundef %104)
  br label %132

106:                                              ; No predecessors!
  br label %107

107:                                              ; preds = %106
  br label %108

108:                                              ; preds = %107, %96
  %109 = call i32 @yaml_stream_end_event_initialize(ptr noundef %10)
  %110 = icmp ne i32 %109, 0
  br i1 %110, label %119, label %111

111:                                              ; preds = %108
  br label %112

112:                                              ; preds = %111
  %113 = load ptr, ptr %7, align 8
  %114 = getelementptr inbounds nuw %struct.yaml_emitter_s, ptr %113, i32 0, i32 1
  %115 = load ptr, ptr %114, align 8
  %116 = call i32 (ptr, ...) @slurm_error(ptr noundef @.str.6, ptr noundef @.str.7, i32 noundef 692, ptr noundef @__func__._dump_yaml, ptr noundef %115)
  br label %132

117:                                              ; No predecessors!
  br label %118

118:                                              ; preds = %117
  br label %119

119:                                              ; preds = %118, %108
  %120 = load ptr, ptr %7, align 8
  %121 = call i32 @yaml_emitter_emit(ptr noundef %120, ptr noundef %10)
  %122 = icmp ne i32 %121, 0
  br i1 %122, label %131, label %123

123:                                              ; preds = %119
  br label %124

124:                                              ; preds = %123
  %125 = load ptr, ptr %7, align 8
  %126 = getelementptr inbounds nuw %struct.yaml_emitter_s, ptr %125, i32 0, i32 1
  %127 = load ptr, ptr %126, align 8
  %128 = call i32 (ptr, ...) @slurm_error(ptr noundef @.str.6, ptr noundef @.str.7, i32 noundef 695, ptr noundef @__func__._dump_yaml, ptr noundef %127)
  br label %132

129:                                              ; No predecessors!
  br label %130

130:                                              ; preds = %129
  br label %131

131:                                              ; preds = %130, %119
  store i32 0, ptr %5, align 4
  store i32 1, ptr %12, align 4
  br label %133

132:                                              ; preds = %124, %112, %101, %89, %84, %72, %60, %49, %37, %17
  store i32 -1, ptr %5, align 4
  store i32 1, ptr %12, align 4
  br label %133

133:                                              ; preds = %132, %131
  call void @llvm.lifetime.end.p0(i64 8, ptr %11) #6
  call void @llvm.lifetime.end.p0(i64 104, ptr %10) #6
  %134 = load i32, ptr %5, align 4
  ret i32 %134
}

; Function Attrs: nounwind uwtable
define dso_local i32 @serialize_p_data_to_string(ptr noundef %0, ptr noundef %1, ptr noundef %2, i32 noundef %3) #0 {
  %5 = alloca i32, align 4
  %6 = alloca ptr, align 8
  %7 = alloca ptr, align 8
  %8 = alloca ptr, align 8
  %9 = alloca i32, align 4
  %10 = alloca %struct.yaml_emitter_s, align 8
  %11 = alloca ptr, align 8
  %12 = alloca i32, align 4
  store ptr %0, ptr %6, align 8
  store ptr %1, ptr %7, align 8
  store ptr %2, ptr %8, align 8
  store i32 %3, ptr %9, align 4
  call void @llvm.lifetime.start.p0(i64 432, ptr %10) #6
  call void @llvm.lifetime.start.p0(i64 8, ptr %11) #6
  %13 = call ptr @slurm_init_buf(i32 noundef 0)
  store ptr %13, ptr %11, align 8
  %14 = load ptr, ptr %8, align 8
  %15 = load ptr, ptr %11, align 8
  %16 = load i32, ptr %9, align 4
  %17 = call i32 @_dump_yaml(ptr noundef %14, ptr noundef %10, ptr noundef %15, i32 noundef %16)
  %18 = icmp ne i32 %17, 0
  br i1 %18, label %19, label %29

19:                                               ; preds = %4
  %20 = call i32 (ptr, ...) @slurm_error(ptr noundef @.str.5, ptr noundef @__func__.serialize_p_data_to_string)
  br label %21

21:                                               ; preds = %19
  %22 = load ptr, ptr %11, align 8
  %23 = icmp ne ptr %22, null
  br i1 %23, label %24, label %26

24:                                               ; preds = %21
  %25 = load ptr, ptr %11, align 8
  call void @slurm_free_buf(ptr noundef %25)
  br label %26

26:                                               ; preds = %24, %21
  store ptr null, ptr %11, align 8
  br label %27

27:                                               ; preds = %26
  br label %28

28:                                               ; preds = %27
  store i32 9202, ptr %5, align 4
  store i32 1, ptr %12, align 4
  br label %47

29:                                               ; preds = %4
  call void @yaml_emitter_delete(ptr noundef %10)
  %30 = load ptr, ptr %7, align 8
  %31 = icmp ne ptr %30, null
  br i1 %31, label %32, label %38

32:                                               ; preds = %29
  %33 = load ptr, ptr %11, align 8
  %34 = getelementptr inbounds nuw %struct.buf_t, ptr %33, i32 0, i32 3
  %35 = load i32, ptr %34, align 4
  %36 = zext i32 %35 to i64
  %37 = load ptr, ptr %7, align 8
  store i64 %36, ptr %37, align 8
  br label %38

38:                                               ; preds = %32, %29
  %39 = load ptr, ptr %11, align 8
  %40 = call ptr @slurm_xfer_buf_data(ptr noundef %39)
  %41 = load ptr, ptr %6, align 8
  store ptr %40, ptr %41, align 8
  store ptr null, ptr %11, align 8
  %42 = load ptr, ptr %6, align 8
  %43 = load ptr, ptr %42, align 8
  %44 = icmp ne ptr %43, null
  br i1 %44, label %45, label %46

45:                                               ; preds = %38
  store i32 0, ptr %5, align 4
  store i32 1, ptr %12, align 4
  br label %47

46:                                               ; preds = %38
  store i32 -1, ptr %5, align 4
  store i32 1, ptr %12, align 4
  br label %47

47:                                               ; preds = %46, %45, %28
  call void @llvm.lifetime.end.p0(i64 8, ptr %11) #6
  call void @llvm.lifetime.end.p0(i64 432, ptr %10) #6
  %48 = load i32, ptr %5, align 4
  ret i32 %48
}