; Function Attrs: nounwind uwtable
define dso_local range(i32 -1, 9203) i32 @serialize_p_data_to_string(ptr noundef writeonly captures(none) %0, ptr noundef writeonly captures(address_is_null) %1, ptr noundef %2, i32 noundef %3) local_unnamed_addr #0 {
  %5 = alloca %struct.yaml_event_s, align 8
  %6 = alloca %struct.yaml_version_directive_s, align 8
  %7 = alloca %struct.yaml_emitter_s, align 8
  call void @llvm.lifetime.start.p0(i64 432, ptr nonnull %7) #6
  %8 = tail call ptr @slurm_init_buf(i32 noundef 0) #6
  call void @llvm.lifetime.start.p0(i64 104, ptr nonnull %5) #6
  call void @llvm.lifetime.start.p0(i64 8, ptr nonnull %6) #6
  store i64 4294967297, ptr %6, align 8
  %9 = call i32 @yaml_emitter_initialize(ptr noundef nonnull %7) #6
  %.not.i = icmp eq i32 %9, 0
  br i1 %.not.i, label %.sink.split, label %10

10:                                               ; preds = %4
  %11 = icmp eq i32 %3, 1
  br i1 %11, label %12, label %13

12:                                               ; preds = %10
  call void @yaml_emitter_set_indent(ptr noundef nonnull %7, i32 noundef 0) #6
  call void @yaml_emitter_set_width(ptr noundef nonnull %7, i32 noundef -1) #6
  call void @yaml_emitter_set_break(ptr noundef nonnull %7, i32 noundef 0) #6
  br label %13

13:                                               ; preds = %12, %10
  call void @yaml_emitter_set_output(ptr noundef nonnull %7, ptr noundef nonnull @_yaml_write_handler, ptr noundef %8) #6
  %14 = call i32 @yaml_stream_start_event_initialize(ptr noundef nonnull %5, i32 noundef 1) #6
  %.not22.i = icmp eq i32 %14, 0
  br i1 %.not22.i, label %.sink.split, label %15

15:                                               ; preds = %13
  %16 = call i32 @yaml_emitter_emit(ptr noundef nonnull %7, ptr noundef nonnull %5) #6
  %.not23.i = icmp eq i32 %16, 0
  br i1 %.not23.i, label %.sink.split, label %17

17:                                               ; preds = %15
  %18 = call i32 @yaml_document_start_event_initialize(ptr noundef nonnull %5, ptr noundef nonnull %6, ptr noundef null, ptr noundef null, i32 noundef 0) #6
  %.not24.i = icmp eq i32 %18, 0
  br i1 %.not24.i, label %.sink.split, label %19

19:                                               ; preds = %17
  %20 = call i32 @yaml_emitter_emit(ptr noundef nonnull %7, ptr noundef nonnull %5) #6
  %.not25.i = icmp eq i32 %20, 0
  br i1 %.not25.i, label %.sink.split, label %21

21:                                               ; preds = %19
  %22 = call fastcc i32 @_data_to_yaml(ptr noundef %2, ptr noundef nonnull %7)
  %.not26.i = icmp eq i32 %22, 0
  br i1 %.not26.i, label %23, label %34

23:                                               ; preds = %21
  %24 = call i32 @yaml_document_end_event_initialize(ptr noundef nonnull %5, i32 noundef 0) #6
  %.not27.i = icmp eq i32 %24, 0
  br i1 %.not27.i, label %.sink.split, label %25

25:                                               ; preds = %23
  %26 = call i32 @yaml_emitter_emit(ptr noundef nonnull %7, ptr noundef nonnull %5) #6
  %.not28.i = icmp eq i32 %26, 0
  br i1 %.not28.i, label %.sink.split, label %27

27:                                               ; preds = %25
  %28 = call i32 @yaml_stream_end_event_initialize(ptr noundef nonnull %5) #6
  %.not29.i = icmp eq i32 %28, 0
  br i1 %.not29.i, label %.sink.split, label %29

29:                                               ; preds = %27
  %30 = call i32 @yaml_emitter_emit(ptr noundef nonnull %7, ptr noundef nonnull %5) #6
  %.not30.i = icmp eq i32 %30, 0
  br i1 %.not30.i, label %.sink.split, label %37

.sink.split:                                      ; preds = %29, %27, %25, %23, %19, %17, %15, %13, %4
  %.sink = phi i32 [ 660, %4 ], [ 671, %13 ], [ 674, %15 ], [ 677, %17 ], [ 680, %19 ], [ 686, %23 ], [ 689, %25 ], [ 692, %27 ], [ 695, %29 ]
  %31 = getelementptr inbounds nuw i8, ptr %7, i64 8
  %32 = load ptr, ptr %31, align 8
  %33 = call i32 (ptr, ...) @slurm_error(ptr noundef nonnull @.str.6, ptr noundef nonnull @.str.7, i32 noundef %.sink, ptr noundef nonnull @__func__._dump_yaml, ptr noundef %32) #6
  br label %34

34:                                               ; preds = %.sink.split, %21
  call void @llvm.lifetime.end.p0(i64 8, ptr nonnull %6) #6
  call void @llvm.lifetime.end.p0(i64 104, ptr nonnull %5) #6
  %35 = call i32 (ptr, ...) @slurm_error(ptr noundef nonnull @.str.5, ptr noundef nonnull @__func__.serialize_p_data_to_string) #6
  %.not15 = icmp eq ptr %8, null
  br i1 %.not15, label %44, label %36

36:                                               ; preds = %34
  call void @slurm_free_buf(ptr noundef nonnull %8) #6
  br label %44

37:                                               ; preds = %29
  call void @llvm.lifetime.end.p0(i64 8, ptr nonnull %6) #6
  call void @llvm.lifetime.end.p0(i64 104, ptr nonnull %5) #6
  call void @yaml_emitter_delete(ptr noundef nonnull %7) #6
  %.not13 = icmp eq ptr %1, null
  br i1 %.not13, label %42, label %38

38:                                               ; preds = %37
  %39 = getelementptr inbounds nuw i8, ptr %8, i64 20
  %40 = load i32, ptr %39, align 4
  %41 = zext i32 %40 to i64
  store i64 %41, ptr %1, align 8
  br label %42

42:                                               ; preds = %38, %37
  %43 = call ptr @slurm_xfer_buf_data(ptr noundef %8) #6
  store ptr %43, ptr %0, align 8
  %.not14 = icmp eq ptr %43, null
  %. = sext i1 %.not14 to i32
  br label %44

44:                                               ; preds = %42, %34, %36
  %.0 = phi i32 [ 9202, %36 ], [ 9202, %34 ], [ %., %42 ]
  call void @llvm.lifetime.end.p0(i64 432, ptr nonnull %7) #6
  ret i32 %.0
}